target datalayout = "e-m:e-p270:32:32-p271:32:32-p272:64:64-i64:64-i128:128-f80:128-n8:16:32:64-S128"
target triple = "x86_64-pc-linux-gnu"

@.str.104 = private unnamed_addr constant [40 x i8] c"ALSA: 6channels:unsupported channel map\00", align 1
@.str.105 = private unnamed_addr constant [36 x i8] c"ALSA: 6channels:sdl map set to rear\00", align 1
@.str.106 = private unnamed_addr constant [36 x i8] c"ALSA: 6channels:sdl map set to side\00", align 1

; Function Attrs: nounwind uwtable
define internal zeroext i1 @has_pos(ptr noundef %0, i32 noundef %1) #0 {
  %3 = alloca i1, align 1
  %4 = alloca ptr, align 8
  %5 = alloca i32, align 4
  %6 = alloca i32, align 4
  %7 = alloca i32, align 4
  store ptr %0, ptr %4, align 8
  store i32 %1, ptr %5, align 4
  call void @llvm.lifetime.start.p0(i64 4, ptr %6) #7
  store i32 0, ptr %6, align 4
  br label %8

8:                                                ; preds = %22, %2
  %9 = load i32, ptr %6, align 4
  %10 = icmp eq i32 %9, 6
  br i1 %10, label %11, label %12

11:                                               ; preds = %8
  store i1 false, ptr %3, align 1
  store i32 1, ptr %7, align 4
  br label %25

12:                                               ; preds = %8
  %13 = load ptr, ptr %4, align 8
  %14 = load i32, ptr %6, align 4
  %15 = zext i32 %14 to i64
  %16 = getelementptr inbounds nuw i32, ptr %13, i64 %15
  %17 = load i32, ptr %16, align 4
  %18 = load i32, ptr %5, align 4
  %19 = icmp eq i32 %17, %18
  br i1 %19, label %20, label %21

20:                                               ; preds = %12
  store i1 true, ptr %3, align 1
  store i32 1, ptr %7, align 4
  br label %25

21:                                               ; preds = %12
  br label %22

22:                                               ; preds = %21
  %23 = load i32, ptr %6, align 4
  %24 = add i32 %23, 1
  store i32 %24, ptr %6, align 4
  br label %8

25:                                               ; preds = %20, %11
  call void @llvm.lifetime.end.p0(i64 4, ptr %6) #7
  %26 = load i1, ptr %3, align 1
  ret i1 %26
}

; Function Attrs: nounwind uwtable
define internal void @sdl_6chans_set_rear_or_side_channels_from_alsa_6chans(ptr noundef %0, ptr noundef %1) #0 {
  %3 = alloca ptr, align 8
  %4 = alloca ptr, align 8
  %5 = alloca i32, align 4
  %6 = alloca i32, align 4
  %7 = alloca i32, align 4
  store ptr %0, ptr %3, align 8
  store ptr %1, ptr %4, align 8
  %8 = load ptr, ptr %4, align 8
  %9 = call zeroext i1 @has_pos(ptr noundef %8, i32 noundef 3)
  br i1 %9, label %10, label %19

10:                                               ; preds = %2
  %11 = load ptr, ptr %4, align 8
  %12 = call zeroext i1 @has_pos(ptr noundef %11, i32 noundef 4)
  br i1 %12, label %13, label %19

13:                                               ; preds = %10
  %14 = load ptr, ptr %4, align 8
  %15 = call zeroext i1 @has_pos(ptr noundef %14, i32 noundef 7)
  br i1 %15, label %16, label %19

16:                                               ; preds = %13
  %17 = load ptr, ptr %4, align 8
  %18 = call zeroext i1 @has_pos(ptr noundef %17, i32 noundef 8)
  br i1 %18, label %24, label %19

19:                                               ; preds = %16, %13, %10, %2
  %20 = load ptr, ptr %3, align 8
  %21 = getelementptr inbounds i32, ptr %20, i64 4
  store i32 0, ptr %21, align 4
  %22 = load ptr, ptr %3, align 8
  %23 = getelementptr inbounds i32, ptr %22, i64 5
  store i32 0, ptr %23, align 4
  call void (i32, ptr, ...) @SDL_LogDebug_REAL(i32 noundef 4, ptr noundef @.str.104)
  br label %109

24:                                               ; preds = %16
  call void @llvm.lifetime.start.p0(i64 4, ptr %5) #7
  store i32 0, ptr %5, align 4
  call void @llvm.lifetime.start.p0(i64 4, ptr %6) #7
  store i32 0, ptr %6, align 4
  br label %25

25:                                               ; preds = %79, %24
  %26 = load i32, ptr %6, align 4
  %27 = icmp ult i32 %26, 6
  br i1 %27, label %29, label %28

28:                                               ; preds = %25
  store i32 2, ptr %7, align 4
  br label %82

29:                                               ; preds = %25
  %30 = load ptr, ptr %4, align 8
  %31 = load i32, ptr %6, align 4
  %32 = zext i32 %31 to i64
  %33 = getelementptr inbounds nuw i32, ptr %30, i64 %32
  %34 = load i32, ptr %33, align 4
  %35 = icmp eq i32 %34, 9
  br i1 %35, label %43, label %36

36:                                               ; preds = %29
  %37 = load ptr, ptr %4, align 8
  %38 = load i32, ptr %6, align 4
  %39 = zext i32 %38 to i64
  %40 = getelementptr inbounds nuw i32, ptr %37, i64 %39
  %41 = load i32, ptr %40, align 4
  %42 = icmp eq i32 %41, 10
  br i1 %42, label %43, label %53

43:                                               ; preds = %36, %29
  %44 = load i32, ptr %5, align 4
  %45 = icmp eq i32 %44, 0
  br i1 %45, label %46, label %47

46:                                               ; preds = %43
  store i32 2, ptr %5, align 4
  br label %52

47:                                               ; preds = %43
  %48 = load i32, ptr %5, align 4
  %49 = icmp eq i32 %48, 1
  br i1 %49, label %50, label %51

50:                                               ; preds = %47
  store i32 3, ptr %5, align 4
  store i32 2, ptr %7, align 4
  br label %82

51:                                               ; preds = %47
  br label %52

52:                                               ; preds = %51, %46
  br label %78

53:                                               ; preds = %36
  %54 = load ptr, ptr %4, align 8
  %55 = load i32, ptr %6, align 4
  %56 = zext i32 %55 to i64
  %57 = getelementptr inbounds nuw i32, ptr %54, i64 %56
  %58 = load i32, ptr %57, align 4
  %59 = icmp eq i32 %58, 5
  br i1 %59, label %67, label %60

60:                                               ; preds = %53
  %61 = load ptr, ptr %4, align 8
  %62 = load i32, ptr %6, align 4
  %63 = zext i32 %62 to i64
  %64 = getelementptr inbounds nuw i32, ptr %61, i64 %63
  %65 = load i32, ptr %64, align 4
  %66 = icmp eq i32 %65, 6
  br i1 %66, label %67, label %77

67:                                               ; preds = %60, %53
  %68 = load i32, ptr %5, align 4
  %69 = icmp eq i32 %68, 0
  br i1 %69, label %70, label %71

70:                                               ; preds = %67
  store i32 1, ptr %5, align 4
  br label %76

71:                                               ; preds = %67
  %72 = load i32, ptr %5, align 4
  %73 = icmp eq i32 %72, 2
  br i1 %73, label %74, label %75

74:                                               ; preds = %71
  store i32 3, ptr %5, align 4
  store i32 2, ptr %7, align 4
  br label %82

75:                                               ; preds = %71
  br label %76

76:                                               ; preds = %75, %70
  br label %77

77:                                               ; preds = %76, %60
  br label %78

78:                                               ; preds = %77, %52
  br label %79

79:                                               ; preds = %78
  %80 = load i32, ptr %6, align 4
  %81 = add i32 %80, 1
  store i32 %81, ptr %6, align 4
  br label %25, !llvm.loop !30

82:                                               ; preds = %74, %50, %28
  call void @llvm.lifetime.end.p0(i64 4, ptr %6) #7
  br label %83

83:                                               ; preds = %82
  %84 = load i32, ptr %5, align 4
  %85 = icmp eq i32 %84, 3
  br i1 %85, label %89, label %86

86:                                               ; preds = %83
  %87 = load i32, ptr %5, align 4
  %88 = icmp eq i32 %87, 0
  br i1 %88, label %89, label %94

89:                                               ; preds = %86, %83
  %90 = load ptr, ptr %3, align 8
  %91 = getelementptr inbounds i32, ptr %90, i64 4
  store i32 0, ptr %91, align 4
  %92 = load ptr, ptr %3, align 8
  %93 = getelementptr inbounds i32, ptr %92, i64 5
  store i32 0, ptr %93, align 4
  call void (i32, ptr, ...) @SDL_LogDebug_REAL(i32 noundef 4, ptr noundef @.str.104)
  br label %108

94:                                               ; preds = %86
  %95 = load i32, ptr %5, align 4
  %96 = icmp eq i32 %95, 1
  br i1 %96, label %97, label %102

97:                                               ; preds = %94
  %98 = load ptr, ptr %3, align 8
  %99 = getelementptr inbounds i32, ptr %98, i64 4
  store i32 5, ptr %99, align 4
  %100 = load ptr, ptr %3, align 8
  %101 = getelementptr inbounds i32, ptr %100, i64 5
  store i32 6, ptr %101, align 4
  call void (i32, ptr, ...) @SDL_LogDebug_REAL(i32 noundef 4, ptr noundef @.str.105)
  br label %107

102:                                              ; preds = %94
  %103 = load ptr, ptr %3, align 8
  %104 = getelementptr inbounds i32, ptr %103, i64 4
  store i32 9, ptr %104, align 4
  %105 = load ptr, ptr %3, align 8
  %106 = getelementptr inbounds i32, ptr %105, i64 5
  store i32 10, ptr %106, align 4
  call void (i32, ptr, ...) @SDL_LogDebug_REAL(i32 noundef 4, ptr noundef @.str.106)
  br label %107

107:                                              ; preds = %102, %97
  br label %108

108:                                              ; preds = %107, %89
  call void @llvm.lifetime.end.p0(i64 4, ptr %5) #7
  br label %109

109:                                              ; preds = %108, %19
  ret void
}