; Function Attrs: nounwind uwtable
define internal fastcc void @sdl_6chans_set_rear_or_side_channels_from_alsa_6chans(ptr noundef nonnull writeonly captures(none) %0, ptr noundef readonly captures(none) %1) unnamed_addr #0 {
  br label %3

3:                                                ; preds = %3, %2
  %indvars.iv = phi i64 [ %indvars.iv.next, %3 ], [ 0, %2 ]
  %4 = getelementptr inbounds nuw i32, ptr %1, i64 %indvars.iv
  %5 = load i32, ptr %4, align 4
  %6 = icmp eq i32 %5, 3
  %indvars.iv.next = add nuw nsw i64 %indvars.iv, 1
  %.not.i = icmp eq i64 %indvars.iv.next, 6
  %or.cond.i = select i1 %6, i1 true, i1 %.not.i
  br i1 %or.cond.i, label %has_pos.exit, label %3

has_pos.exit:                                     ; preds = %3
  br i1 %6, label %.preheader47, label %.thread

.preheader47:                                     ; preds = %has_pos.exit, %.preheader47
  %indvars.iv58 = phi i64 [ %indvars.iv.next59, %.preheader47 ], [ 0, %has_pos.exit ]
  %7 = getelementptr inbounds nuw i32, ptr %1, i64 %indvars.iv58
  %8 = load i32, ptr %7, align 4
  %9 = icmp eq i32 %8, 4
  %indvars.iv.next59 = add nuw nsw i64 %indvars.iv58, 1
  %.not.i33 = icmp eq i64 %indvars.iv.next59, 6
  %or.cond.i34 = select i1 %9, i1 true, i1 %.not.i33
  br i1 %or.cond.i34, label %has_pos.exit35, label %.preheader47

has_pos.exit35:                                   ; preds = %.preheader47
  br i1 %9, label %.preheader46, label %.thread

.preheader46:                                     ; preds = %has_pos.exit35, %.preheader46
  %indvars.iv61 = phi i64 [ %indvars.iv.next62, %.preheader46 ], [ 0, %has_pos.exit35 ]
  %10 = getelementptr inbounds nuw i32, ptr %1, i64 %indvars.iv61
  %11 = load i32, ptr %10, align 4
  %12 = icmp eq i32 %11, 7
  %indvars.iv.next62 = add nuw nsw i64 %indvars.iv61, 1
  %.not.i37 = icmp eq i64 %indvars.iv.next62, 6
  %or.cond.i38 = select i1 %12, i1 true, i1 %.not.i37
  br i1 %or.cond.i38, label %has_pos.exit39, label %.preheader46

has_pos.exit39:                                   ; preds = %.preheader46
  br i1 %12, label %.preheader45, label %.thread

.preheader45:                                     ; preds = %has_pos.exit39, %.preheader45
  %indvars.iv64 = phi i64 [ %indvars.iv.next65, %.preheader45 ], [ 0, %has_pos.exit39 ]
  %13 = getelementptr inbounds nuw i32, ptr %1, i64 %indvars.iv64
  %14 = load i32, ptr %13, align 4
  %15 = icmp eq i32 %14, 8
  %indvars.iv.next65 = add nuw nsw i64 %indvars.iv64, 1
  %.not.i41 = icmp eq i64 %indvars.iv.next65, 6
  %or.cond.i42 = select i1 %15, i1 true, i1 %.not.i41
  br i1 %or.cond.i42, label %has_pos.exit43, label %.preheader45

has_pos.exit43:                                   ; preds = %.preheader45
  br i1 %15, label %.preheader, label %.thread

.preheader:                                       ; preds = %has_pos.exit43, %20
  %indvars.iv67 = phi i64 [ %indvars.iv.next68, %20 ], [ 0, %has_pos.exit43 ]
  %.02952 = phi i32 [ %.2, %20 ], [ 0, %has_pos.exit43 ]
  %16 = getelementptr inbounds nuw i32, ptr %1, i64 %indvars.iv67
  %17 = load i32, ptr %16, align 4
  switch i32 %17, label %20 [
    i32 9, label %18
    i32 10, label %18
    i32 5, label %19
    i32 6, label %19
  ]

18:                                               ; preds = %.preheader, %.preheader
  %cond = icmp eq i32 %.02952, 1
  br i1 %cond, label %.thread, label %20

19:                                               ; preds = %.preheader, %.preheader
  %cond31 = icmp eq i32 %.02952, 2
  br i1 %cond31, label %.thread, label %20

20:                                               ; preds = %19, %18, %.preheader
  %.2 = phi i32 [ 2, %18 ], [ %.02952, %.preheader ], [ 1, %19 ]
  %indvars.iv.next68 = add nuw nsw i64 %indvars.iv67, 1
  %exitcond.not = icmp eq i64 %indvars.iv.next68, 6
  br i1 %exitcond.not, label %switch.lookup, label %.preheader, !llvm.loop !29

switch.lookup:                                    ; preds = %20
  %21 = zext nneg i32 %.2 to i64
  %switch.gep = getelementptr inbounds nuw [4 x i32], ptr @switch.table.sdl_6chans_set_rear_or_side_channels_from_alsa_6chans, i64 0, i64 %21
  %switch.load = load i32, ptr %switch.gep, align 4
  %22 = zext nneg i32 %.2 to i64
  %switch.gep79 = getelementptr inbounds nuw [4 x i32], ptr @switch.table.sdl_6chans_set_rear_or_side_channels_from_alsa_6chans.1, i64 0, i64 %22
  %switch.load80 = load i32, ptr %switch.gep79, align 4
  %23 = zext nneg i32 %.2 to i64
  %switch.gep81 = getelementptr inbounds nuw [4 x ptr], ptr @switch.table.sdl_6chans_set_rear_or_side_channels_from_alsa_6chans.2, i64 0, i64 %23
  %switch.load82 = load ptr, ptr %switch.gep81, align 8
  br label %.thread

.thread:                                          ; preds = %18, %19, %switch.lookup, %has_pos.exit, %has_pos.exit35, %has_pos.exit39, %has_pos.exit43
  %.sink74 = phi i32 [ 0, %has_pos.exit43 ], [ 0, %has_pos.exit39 ], [ 0, %has_pos.exit35 ], [ 0, %has_pos.exit ], [ %switch.load, %switch.lookup ], [ 0, %19 ], [ 0, %18 ]
  %.sink = phi i32 [ 0, %has_pos.exit43 ], [ 0, %has_pos.exit39 ], [ 0, %has_pos.exit35 ], [ 0, %has_pos.exit ], [ %switch.load80, %switch.lookup ], [ 0, %19 ], [ 0, %18 ]
  %.str.104.sink = phi ptr [ @.str.104, %has_pos.exit43 ], [ @.str.104, %has_pos.exit39 ], [ @.str.104, %has_pos.exit35 ], [ @.str.104, %has_pos.exit ], [ %switch.load82, %switch.lookup ], [ @.str.104, %19 ], [ @.str.104, %18 ]
  %24 = getelementptr inbounds nuw i8, ptr %0, i64 16
  store i32 %.sink74, ptr %24, align 4
  %25 = getelementptr inbounds nuw i8, ptr %0, i64 20
  store i32 %.sink, ptr %25, align 4
  tail call void (i32, ptr, ...) @SDL_LogDebug_REAL(i32 noundef 4, ptr noundef nonnull %.str.104.sink) #8
  ret void
}